(dp1
S'output'
p2
S"<type 'exceptions.NameError'> name 'url' is not defined"
p3
sS'layer'
p4
S'C:\\Users\\Sumani\\Downloads\\web2py_win\\web2py\\applications\\codetrain\\views\\default/register.html'
p5
sS'code'
p6
S'response.write(\'<!DOCTYPE html>\\r\\n<html>\\r\\n<head>\\r\\n\\t<title></title>\\r\\n\\t<link rel="stylesheet" type="text/css" href="\', escape=False)\nresponse.write(URL(\'static\',\'css/bootstrap.css\'))\nresponse.write(\'">\\r\\n\\t<link rel="stylesheet" type="text/css" href="\', escape=False)\nresponse.write(URL(\'static\',\'css/style.css\'))\nresponse.write(\'">\\r\\n\\t<h1>CODE SCHOOL</h1>\\r\\n\\t<style>\\r\\n\\t\\t#example1 {\\r\\n    background: "\', escape=False)\nresponse.write(url(\'static\',\'images/bd.jpg\'))\nresponse.write(\'";\\r\\n    background-repeat: no-repeat;\\r\\n    background-size: auto;\\r\\n\\t</style>\\r\\n</head>\\r\\n<body class="background1">\\t\\r\\n\\t<div class="container">\\r\\n\\t\\t<div class="row">\\r\\n\\t\\t\\t<div class="col-md-6">\\r\\n\\t\\t\\t\\t<p>OUR MISSION\\r\\n\\t\\t\\t\\tAt CODE SCHOOL, we mentor individuals into professional programmers in an immersive classroom setting. Located in Madina, Accra, we offer a full-time, 12-week Web Development course designed to prepare students for a career in software development.</p> \\r\\n\\t\\t\\t\\t<br><br>\\r\\n\\t\\t\\t\\t<p>OUR INSTRUCTORS\\r\\n\\t\\t\\t\\tOur full-time instructors are industry experts and passionate educators who are committed to the success of every single student. Our courses are structured to provide in-person, one-on-one mentorship and guidance.</p> \\r\\n\\t\\t\\t\\t<br><br>\\r\\n\\t\\t\\t\\t<p>OUR CURRICULUM\\r\\n\\t\\t\\t\\tOur structured curriculum is designed with input from Upstate employers to give students a full-stack foundation and to prepare them for careers in technology - right here at home or wherever their career path may go.</p>\\r\\n\\t\\t\\t</div>\\r\\n\\t\\t\\t<div class="col-md-6 form-div>\\r\\n\\t\\t\\t\\t<form action="\', escape=False)\nresponse.write(URL(\'store\'))\nresponse.write(\'" method="post">\\r\\n\\t\\t\\t\\t\\t<div class="form-group">\\r\\n\\t\\t\\t\\t\\t\\t<label for="firstname">First Name</label>\\r\\n\\t\\t\\t\\t\\t\\t<input type="text" class="form-control" name="firstname">\\r\\n\\t\\t\\t\\t\\t</div>\\r\\n\\t\\t\\t\\t\\t<div class="form-group">\\r\\n\\t\\t\\t\\t\\t\\t<label for="lastname">Last Name</label>\\r\\n\\t\\t\\t\\t\\t\\t<input type="text" class="form-control" name="lastname">\\r\\n\\t\\t\\t\\t\\t</div>\\r\\n\\t\\t\\t\\t\\t<div class="form-group">\\r\\n\\t\\t\\t\\t\\t\\t<label for="email">Email</label>\\r\\n\\t\\t\\t\\t\\t\\t<input type="email" class="form-control" name="email">\\r\\n\\t\\t\\t\\t\\t</div>\\r\\n\\t\\t\\t\\t\\t<div class="form-group">\\r\\n\\t\\t\\t\\t\\t\\t<label for="password">Password</label>\\r\\n\\t\\t\\t\\t\\t\\t<input type="password" class="form-control" name="password">\\r\\n\\t\\t\\t\\t\\t</div>\\r\\n\\t\\t\\t\\t\\t<div>\\r\\n\\t\\t\\t\\t\\t\\t<input type="submit" class="btn btn-primary" value="Save User">\\r\\n\\t\\t\\t\\t\\t\\t<button type="button" class="btn btn-default"><a href="\', escape=False)\nresponse.write(URL(\'login.html\'))\nresponse.write(\'">Login</button>\\r\\n\\t\\t\\t\\t\\t</div>\\r\\n\\t\\t\\t\\t</form>\\r\\n\\t\\t\\t</div>\\t\\r\\n\\t\\t</div>\\r\\n\\t</div>\\r\\n\\t<script src="\', escape=False)\nresponse.write(URL(\'static\',\'js/jquery.js\'))\nresponse.write(\'"></script>\\t\\r\\n\\t<script src="\', escape=False)\nresponse.write(URL(\'static\',\'js/bootstrap.js\'))\nresponse.write(\'"></script>\\r\\n</body>\\r\\n</html>\', escape=False)'
p7
sS'snapshot'
p8
(dp9
S'exception'
p10
(dp11
S'__getslice__'
p12
S"<method-wrapper '__getslice__' of exceptions.NameError object>"
p13
sS'__str__'
p14
S"<method-wrapper '__str__' of exceptions.NameError object>"
p15
sS'__reduce__'
p16
S'<built-in method __reduce__ of exceptions.NameError object>'
p17
sS'__dict__'
p18
S'{}'
p19
sS'message'
p20
S'"name \'url\' is not defined"'
p21
sS'__sizeof__'
p22
S'<built-in method __sizeof__ of exceptions.NameError object>'
p23
sS'__init__'
p24
S"<method-wrapper '__init__' of exceptions.NameError object>"
p25
sS'__setattr__'
p26
S"<method-wrapper '__setattr__' of exceptions.NameError object>"
p27
sS'__reduce_ex__'
p28
S'<built-in method __reduce_ex__ of exceptions.NameError object>'
p29
sS'__new__'
p30
S'<built-in method __new__ of type object>'
p31
sS'__format__'
p32
S'<built-in method __format__ of exceptions.NameError object>'
p33
sS'__class__'
p34
S"<type 'exceptions.NameError'>"
p35
sS'__doc__'
p36
S"'Name not found globally.'"
p37
sS'__getitem__'
p38
S"<method-wrapper '__getitem__' of exceptions.NameError object>"
p39
sS'__setstate__'
p40
S'<built-in method __setstate__ of exceptions.NameError object>'
p41
sS'__getattribute__'
p42
S"<method-wrapper '__getattribute__' of exceptions.NameError object>"
p43
sS'args'
p44
S'("name \'url\' is not defined",)'
p45
sS'__subclasshook__'
p46
S'<built-in method __subclasshook__ of type object>'
p47
sS'__unicode__'
p48
S'<built-in method __unicode__ of exceptions.NameError object>'
p49
sS'__delattr__'
p50
S"<method-wrapper '__delattr__' of exceptions.NameError object>"
p51
sS'__repr__'
p52
S"<method-wrapper '__repr__' of exceptions.NameError object>"
p53
sS'__hash__'
p54
S"<method-wrapper '__hash__' of exceptions.NameError object>"
p55
ssS'evalue'
p56
S"name 'url' is not defined"
p57
sS'request'
p58
cgluon.html
XML_unpickle
p59
(S's\xb1b\x00\x00<div><table><tr><td style="font-weight:bold;vertical-align:top;">ajax</td><td style="vertical-align:top;">:</td><td><div>False</div></td></tr><tr><td style="font-weight:bold;vertical-align:top;">application</td><td style="vertical-align:top;">:</td><td><div>codetrain</div></td></tr><tr><td style="font-weight:bold;vertical-align:top;">args</td><td style="vertical-align:top;">:</td><td><div><table></table></div></td></tr><tr><td style="font-weight:bold;vertical-align:top;">cid</td><td style="vertical-align:top;">:</td><td><div>None</div></td></tr><tr><td style="font-weight:bold;vertical-align:top;">client</td><td style="vertical-align:top;">:</td><td><div>127.0.0.1</div></td></tr><tr><td style="font-weight:bold;vertical-align:top;">controller</td><td style="vertical-align:top;">:</td><td><div>default</div></td></tr><tr><td style="font-weight:bold;vertical-align:top;">cookies</td><td style="vertical-align:top;">:</td><td><div><table><tr><td style="font-weight:bold;vertical-align:top;">session_id_admin</td><td style="vertical-align:top;">:</td><td><div>127.0.0.1-571516b3-6810-44b5-8d6a-5800740c9eda<table><tr><td style="font-weight:bold;vertical-align:top;">comment</td><td style="vertical-align:top;">:</td><td><div></div></td></tr><tr><td style="font-weight:bold;vertical-align:top;">domain</td><td style="vertical-align:top;">:</td><td><div></div></td></tr><tr><td style="font-weight:bold;vertical-align:top;">expires</td><td style="vertical-align:top;">:</td><td><div></div></td></tr><tr><td style="font-weight:bold;vertical-align:top;">httponly</td><td style="vertical-align:top;">:</td><td><div></div></td></tr><tr><td style="font-weight:bold;vertical-align:top;">max-age</td><td style="vertical-align:top;">:</td><td><div></div></td></tr><tr><td style="font-weight:bold;vertical-align:top;">path</td><td style="vertical-align:top;">:</td><td><div></div></td></tr><tr><td style="font-weight:bold;vertical-align:top;">secure</td><td style="vertical-align:top;">:</td><td><div></div></td></tr><tr><td style="font-weight:bold;vertical-align:top;">version</td><td style="vertical-align:top;">:</td><td><div></div></td></tr></table></div></td></tr><tr><td style="font-weight:bold;vertical-align:top;">session_id_codetrain</td><td style="vertical-align:top;">:</td><td><div>127.0.0.1-c7572306-0a59-47b3-b1ac-31fc276e7e44<table><tr><td style="font-weight:bold;vertical-align:top;">comment</td><td style="vertical-align:top;">:</td><td><div></div></td></tr><tr><td style="font-weight:bold;vertical-align:top;">domain</td><td style="vertical-align:top;">:</td><td><div></div></td></tr><tr><td style="font-weight:bold;vertical-align:top;">expires</td><td style="vertical-align:top;">:</td><td><div></div></td></tr><tr><td style="font-weight:bold;vertical-align:top;">httponly</td><td style="vertical-align:top;">:</td><td><div></div></td></tr><tr><td style="font-weight:bold;vertical-align:top;">max-age</td><td style="vertical-align:top;">:</td><td><div></div></td></tr><tr><td style="font-weight:bold;vertical-align:top;">path</td><td style="vertical-align:top;">:</td><td><div></div></td></tr><tr><td style="font-weight:bold;vertical-align:top;">secure</td><td style="vertical-align:top;">:</td><td><div></div></td></tr><tr><td style="font-weight:bold;vertical-align:top;">version</td><td style="vertical-align:top;">:</td><td><div></div></td></tr></table></div></td></tr><tr><td style="font-weight:bold;vertical-align:top;">session_id_sumani</td><td style="vertical-align:top;">:</td><td><div>127.0.0.1-fc85dd41-37e2-4dae-aa5f-a1fabb254d8b<table><tr><td style="font-weight:bold;vertical-align:top;">comment</td><td style="vertical-align:top;">:</td><td><div></div></td></tr><tr><td style="font-weight:bold;vertical-align:top;">domain</td><td style="vertical-align:top;">:</td><td><div></div></td></tr><tr><td style="font-weight:bold;vertical-align:top;">expires</td><td style="vertical-align:top;">:</td><td><div></div></td></tr><tr><td style="font-weight:bold;vertical-align:top;">httponly</td><td style="vertical-align:top;">:</td><td><div></div></td></tr><tr><td style="font-weight:bold;vertical-align:top;">max-age</td><td style="vertical-align:top;">:</td><td><div></div></td></tr><tr><td style="font-weight:bold;vertical-align:top;">path</td><td style="vertical-align:top;">:</td><td><div></div></td></tr><tr><td style="font-weight:bold;vertical-align:top;">secure</td><td style="vertical-align:top;">:</td><td><div></div></td></tr><tr><td style="font-weight:bold;vertical-align:top;">version</td><td style="vertical-align:top;">:</td><td><div></div></td></tr></table></div></td></tr><tr><td style="font-weight:bold;vertical-align:top;">session_id_welcome</td><td style="vertical-align:top;">:</td><td><div>127.0.0.1-cbfd6023-5859-466e-b86b-79ef7a23a7b5<table><tr><td style="font-weight:bold;vertical-align:top;">comment</td><td style="vertical-align:top;">:</td><td><div></div></td></tr><tr><td style="font-weight:bold;vertical-align:top;">domain</td><td style="vertical-align:top;">:</td><td><div></div></td></tr><tr><td style="font-weight:bold;vertical-align:top;">expires</td><td style="vertical-align:top;">:</td><td><div></div></td></tr><tr><td style="font-weight:bold;vertical-align:top;">httponly</td><td style="vertical-align:top;">:</td><td><div></div></td></tr><tr><td style="font-weight:bold;vertical-align:top;">max-age</td><td style="vertical-align:top;">:</td><td><div></div></td></tr><tr><td style="font-weight:bold;vertical-align:top;">path</td><td style="vertical-align:top;">:</td><td><div></div></td></tr><tr><td style="font-weight:bold;vertical-align:top;">secure</td><td style="vertical-align:top;">:</td><td><div></div></td></tr><tr><td style="font-weight:bold;vertical-align:top;">version</td><td style="vertical-align:top;">:</td><td><div></div></td></tr></table></div></td></tr></table></div></td></tr><tr><td style="font-weight:bold;vertical-align:top;">env</td><td style="vertical-align:top;">:</td><td><div><table><tr><td style="font-weight:bold;vertical-align:top;">HTTP_ACCEPT</td><td style="vertical-align:top;">:</td><td><div>text/html,application/xhtml+xml,application/xml;q=0.9,image/webp,image/apng,*/*;q=0.8</div></td></tr><tr><td style="font-weight:bold;vertical-align:top;">HTTP_ACCEPT_ENCODING</td><td style="vertical-align:top;">:</td><td><div>gzip, deflate, br</div></td></tr><tr><td style="font-weight:bold;vertical-align:top;">HTTP_ACCEPT_LANGUAGE</td><td style="vertical-align:top;">:</td><td><div>en-US,en;q=0.9</div></td></tr><tr><td style="font-weight:bold;vertical-align:top;">HTTP_CACHE_CONTROL</td><td style="vertical-align:top;">:</td><td><div>max-age=0</div></td></tr><tr><td style="font-weight:bold;vertical-align:top;">HTTP_CONNECTION</td><td style="vertical-align:top;">:</td><td><div>keep-alive</div></td></tr><tr><td style="font-weight:bold;vertical-align:top;">HTTP_COOKIE</td><td style="vertical-align:top;">:</td><td><div>session_id_admin=127.0.0.1-571516b3-6810-44b5-8d6a-5800740c9eda; session_id_sumani=127.0.0.1-fc85dd41-37e2-4dae-aa5f-a1fabb254d8b; session_id_welcome=127.0.0.1-cbfd6023-5859-466e-b86b-79ef7a23a7b5; session_id_codetrain=127.0.0.1-c7572306-0a59-47b3-b1ac-31fc276e7e44</div></td></tr><tr><td style="font-weight:bold;vertical-align:top;">HTTP_HOST</td><td style="vertical-align:top;">:</td><td><div>127.0.0.1:8000</div></td></tr><tr><td style="font-weight:bold;vertical-align:top;">HTTP_UPGRADE_INSECURE_REQUESTS</td><td style="vertical-align:top;">:</td><td><div>1</div></td></tr><tr><td style="font-weight:bold;vertical-align:top;">HTTP_USER_AGENT</td><td style="vertical-align:top;">:</td><td><div>Mozilla/5.0 (Windows NT 10.0; Win64; x64) AppleWebKit/537.36 (KHTML, like Gecko) Chrome/67.0.3396.87 Safari/537.36</div></td></tr><tr><td style="font-weight:bold;vertical-align:top;">PATH_INFO</td><td style="vertical-align:top;">:</td><td><div>/codetrain/default/register</div></td></tr><tr><td style="font-weight:bold;vertical-align:top;">QUERY_STRING</td><td style="vertical-align:top;">:</td><td><div></div></td></tr><tr><td style="font-weight:bold;vertical-align:top;">REMOTE_ADDR</td><td style="vertical-align:top;">:</td><td><div>127.0.0.1</div></td></tr><tr><td style="font-weight:bold;vertical-align:top;">REMOTE_PORT</td><td style="vertical-align:top;">:</td><td><div>51661</div></td></tr><tr><td style="font-weight:bold;vertical-align:top;">REQUEST_METHOD</td><td style="vertical-align:top;">:</td><td><div>GET</div></td></tr><tr><td style="font-weight:bold;vertical-align:top;">SCRIPT_NAME</td><td style="vertical-align:top;">:</td><td><div></div></td></tr><tr><td style="font-weight:bold;vertical-align:top;">SERVER_NAME</td><td style="vertical-align:top;">:</td><td><div>DESKTOP-TT21R8I</div></td></tr><tr><td style="font-weight:bold;vertical-align:top;">SERVER_PORT</td><td style="vertical-align:top;">:</td><td><div>8000</div></td></tr><tr><td style="font-weight:bold;vertical-align:top;">SERVER_PROTOCOL</td><td style="vertical-align:top;">:</td><td><div>HTTP/1.1</div></td></tr><tr><td style="font-weight:bold;vertical-align:top;">SERVER_SOFTWARE</td><td style="vertical-align:top;">:</td><td><div>Rocket 1.2.6</div></td></tr><tr><td style="font-weight:bold;vertical-align:top;">app_folders</td><td style="vertical-align:top;">:</td><td><div>set([&#x27;C:\\\\Users\\\\Sumani\\\\Downloads\\\\web2py_win\\\\web2py\\\\applications\\\\welcome\\\\&#x27;, &#x27;C:\\\\Users\\\\Sumani\\\\Downloads\\\\web2py_win\\\\web2py\\\\applications\\\\codetrain\\\\&#x27;])</div></td></tr><tr><td style="font-weight:bold;vertical-align:top;">applications_parent</td><td style="vertical-align:top;">:</td><td><div>C:\\Users\\Sumani\\Downloads\\web2py_win\\web2py</div></td></tr><tr><td style="font-weight:bold;vertical-align:top;">cmd_args</td><td style="vertical-align:top;">:</td><td><div><table></table></div></td></tr><tr><td style="font-weight:bold;vertical-align:top;">cmd_options</td><td style="vertical-align:top;">:</td><td><div>&lt;Values at 0x3aeed78: {&#x27;verbose&#x27;: False, &#x27;ip&#x27;: &#x27;127.0.0.1&#x27;, &#x27;debuglevel&#x27;: 30, &#x27;with_scheduler&#x27;: False, &#x27;shutdown_timeout&#x27;: 5, &#x27;taskbar&#x27;: False, &#x27;with_coverage&#x27;: False, &#x27;pid_filename&#x27;: &#x27;httpserver.pid&#x27;, &#x27;maxthreads&#x27;: None, &#x27;softcron&#x27;: False, &#x27;server_name&#x27;: &#x27;DESKTOP-TT21R8I&#x27;, &#x27;bpython&#x27;: False, &#x27;nogui&#x27;: False, &#x27;port&#x27;: 8000, &#x27;print_errors&#x27;: False, &#x27;extcron&#x27;: False, &#x27;runcron&#x27;: False, &#x27;run_system_tests&#x27;: False, &#x27;test&#x27;: None, &#x27;folder&#x27;: &#x27;C:\\\\Users\\\\Sumani\\\\Downloads\\\\web2py_win\\\\web2py&#x27;, &#x27;config&#x27;: &#x27;&#x27;, &#x27;minthreads&#x27;: None, &#x27;shell&#x27;: None, &#x27;run&#x27;: &#x27;&#x27;, &#x27;log_filename&#x27;: &#x27;httpserver.log&#x27;, &#x27;profiler_dir&#x27;: None, &#x27;args&#x27;: [&#x27;&#x27;], &#x27;socket_timeout&#x27;: 5, &#x27;ssl_ca_certificate&#x27;: None, &#x27;scheduler&#x27;: None, &#x27;interfaces&#x27;: None, &#x27;ssl_private_key&#x27;: &#x27;&#x27;, &#x27;gae&#x27;: None, &#x27;password&#x27;: &#x27;******&#x27;, &#x27;request_queue_size&#x27;: 5, &#x27;ssl_certificate&#x27;: &#x27;&#x27;, &#x27;cronjob&#x27;: False, &#x27;numthreads&#x27;: None, &#x27;quiet&#x27;: False, &#x27;import_models&#x27;: False, &#x27;timeout&#x27;: 10, &#x27;plain&#x27;: False, &#x27;nobanner&#x27;: False}&gt;</div></td></tr><tr><td style="font-weight:bold;vertical-align:top;">db_sessions</td><td style="vertical-align:top;">:</td><td><div>set([])</div></td></tr><tr><td style="font-weight:bold;vertical-align:top;">debugging</td><td style="vertical-align:top;">:</td><td><div>False</div></td></tr><tr><td style="font-weight:bold;vertical-align:top;">gluon_parent</td><td style="vertical-align:top;">:</td><td><div>C:\\Users\\Sumani\\Downloads\\web2py_win\\web2py</div></td></tr><tr><td style="font-weight:bold;vertical-align:top;">http_accept</td><td style="vertical-align:top;">:</td><td><div>text/html,application/xhtml+xml,application/xml;q=0.9,image/webp,image/apng,*/*;q=0.8</div></td></tr><tr><td style="font-weight:bold;vertical-align:top;">http_accept_encoding</td><td style="vertical-align:top;">:</td><td><div>gzip, deflate, br</div></td></tr><tr><td style="font-weight:bold;vertical-align:top;">http_accept_language</td><td style="vertical-align:top;">:</td><td><div>en-US,en;q=0.9</div></td></tr><tr><td style="font-weight:bold;vertical-align:top;">http_cache_control</td><td style="vertical-align:top;">:</td><td><div>max-age=0</div></td></tr><tr><td style="font-weight:bold;vertical-align:top;">http_connection</td><td style="vertical-align:top;">:</td><td><div>keep-alive</div></td></tr><tr><td style="font-weight:bold;vertical-align:top;">http_cookie</td><td style="vertical-align:top;">:</td><td><div>session_id_admin=127.0.0.1-571516b3-6810-44b5-8d6a-5800740c9eda; session_id_sumani=127.0.0.1-fc85dd41-37e2-4dae-aa5f-a1fabb254d8b; session_id_welcome=127.0.0.1-cbfd6023-5859-466e-b86b-79ef7a23a7b5; session_id_codetrain=127.0.0.1-c7572306-0a59-47b3-b1ac-31fc276e7e44</div></td></tr><tr><td style="font-weight:bold;vertical-align:top;">http_host</td><td style="vertical-align:top;">:</td><td><div>127.0.0.1:8000</div></td></tr><tr><td style="font-weight:bold;vertical-align:top;">http_upgrade_insecure_requests</td><td style="vertical-align:top;">:</td><td><div>1</div></td></tr><tr><td style="font-weight:bold;vertical-align:top;">http_user_agent</td><td style="vertical-align:top;">:</td><td><div>Mozilla/5.0 (Windows NT 10.0; Win64; x64) AppleWebKit/537.36 (KHTML, like Gecko) Chrome/67.0.3396.87 Safari/537.36</div></td></tr><tr><td style="font-weight:bold;vertical-align:top;">is_jython</td><td style="vertical-align:top;">:</td><td><div>False</div></td></tr><tr><td style="font-weight:bold;vertical-align:top;">is_py2</td><td style="vertical-align:top;">:</td><td><div>True</div></td></tr><tr><td style="font-weight:bold;vertical-align:top;">is_pypy</td><td style="vertical-align:top;">:</td><td><div>False</div></td></tr><tr><td style="font-weight:bold;vertical-align:top;">is_source</td><td style="vertical-align:top;">:</td><td><div>False</div></td></tr><tr><td style="font-weight:bold;vertical-align:top;">local_hosts</td><td style="vertical-align:top;">:</td><td><div><table><tr><td><div>192.168.43.81</div></td></tr><tr><td><div>::ffff:127.0.0.1</div></td></tr><tr><td><div>::1</div></td></tr><tr><td><div>127.0.0.1</div></td></tr><tr><td><div>fe80::b142:adc2:c280:1f7a%9</div></td></tr><tr><td><div>DESKTOP-TT21R8I</div></td></tr></table></div></td></tr><tr><td style="font-weight:bold;vertical-align:top;">path_info</td><td style="vertical-align:top;">:</td><td><div>/codetrain/default/register</div></td></tr><tr><td style="font-weight:bold;vertical-align:top;">query_string</td><td style="vertical-align:top;">:</td><td><div></div></td></tr><tr><td style="font-weight:bold;vertical-align:top;">remote_addr</td><td style="vertical-align:top;">:</td><td><div>127.0.0.1</div></td></tr><tr><td style="font-weight:bold;vertical-align:top;">remote_port</td><td style="vertical-align:top;">:</td><td><div>51661</div></td></tr><tr><td style="font-weight:bold;vertical-align:top;">request_method</td><td style="vertical-align:top;">:</td><td><div>GET</div></td></tr><tr><td style="font-weight:bold;vertical-align:top;">request_uri</td><td style="vertical-align:top;">:</td><td><div>/codetrain/default/register</div></td></tr><tr><td style="font-weight:bold;vertical-align:top;">script_name</td><td style="vertical-align:top;">:</td><td><div></div></td></tr><tr><td style="font-weight:bold;vertical-align:top;">server_name</td><td style="vertical-align:top;">:</td><td><div>DESKTOP-TT21R8I</div></td></tr><tr><td style="font-weight:bold;vertical-align:top;">server_port</td><td style="vertical-align:top;">:</td><td><div>8000</div></td></tr><tr><td style="font-weight:bold;vertical-align:top;">server_protocol</td><td style="vertical-align:top;">:</td><td><div>HTTP/1.1</div></td></tr><tr><td style="font-weight:bold;vertical-align:top;">server_software</td><td style="vertical-align:top;">:</td><td><div>Rocket 1.2.6</div></td></tr><tr><td style="font-weight:bold;vertical-align:top;">web2py_path</td><td style="vertical-align:top;">:</td><td><div>C:\\Users\\Sumani\\Downloads\\web2py_win\\web2py</div></td></tr><tr><td style="font-weight:bold;vertical-align:top;">web2py_version</td><td style="vertical-align:top;">:</td><td><div>2.16.1-stable+timestamp.2017.11.14.05.54.25</div></td></tr><tr><td style="font-weight:bold;vertical-align:top;">wsgi.errors</td><td style="vertical-align:top;">:</td><td><div>&lt;open file &#x27;&lt;stderr&gt;&#x27;, mode &#x27;w&#x27; at 0x0214D0D0&gt;</div></td></tr><tr><td style="font-weight:bold;vertical-align:top;">wsgi.file_wrapper</td><td style="vertical-align:top;">:</td><td><div>&lt;class wsgiref.util.FileWrapper at 0x02F14AE8&gt;</div></td></tr><tr><td style="font-weight:bold;vertical-align:top;">wsgi.input</td><td style="vertical-align:top;">:</td><td><div>&lt;socket._fileobject object at 0x03C152F0&gt;</div></td></tr><tr><td style="font-weight:bold;vertical-align:top;">wsgi.multiprocess</td><td style="vertical-align:top;">:</td><td><div>False</div></td></tr><tr><td style="font-weight:bold;vertical-align:top;">wsgi.multithread</td><td style="vertical-align:top;">:</td><td><div>True</div></td></tr><tr><td style="font-weight:bold;vertical-align:top;">wsgi.run_once</td><td style="vertical-align:top;">:</td><td><div>False</div></td></tr><tr><td style="font-weight:bold;vertical-align:top;">wsgi.url_scheme</td><td style="vertical-align:top;">:</td><td><div>http</div></td></tr><tr><td style="font-weight:bold;vertical-align:top;">wsgi.version</td><td style="vertical-align:top;">:</td><td><div><table><tr><td><div>1</div></td></tr><tr><td><div>0</div></td></tr></table></div></td></tr><tr><td style="font-weight:bold;vertical-align:top;">wsgi_errors</td><td style="vertical-align:top;">:</td><td><div>&lt;open file &#x27;&lt;stderr&gt;&#x27;, mode &#x27;w&#x27; at 0x0214D0D0&gt;</div></td></tr><tr><td style="font-weight:bold;vertical-align:top;">wsgi_file_wrapper</td><td style="vertical-align:top;">:</td><td><div>&lt;class wsgiref.util.FileWrapper at 0x02F14AE8&gt;</div></td></tr><tr><td style="font-weight:bold;vertical-align:top;">wsgi_input</td><td style="vertical-align:top;">:</td><td><div>&lt;socket._fileobject object at 0x03C152F0&gt;</div></td></tr><tr><td style="font-weight:bold;vertical-align:top;">wsgi_multiprocess</td><td style="vertical-align:top;">:</td><td><div>False</div></td></tr><tr><td style="font-weight:bold;vertical-align:top;">wsgi_multithread</td><td style="vertical-align:top;">:</td><td><div>True</div></td></tr><tr><td style="font-weight:bold;vertical-align:top;">wsgi_run_once</td><td style="vertical-align:top;">:</td><td><div>False</div></td></tr><tr><td style="font-weight:bold;vertical-align:top;">wsgi_url_scheme</td><td style="vertical-align:top;">:</td><td><div>http</div></td></tr><tr><td style="font-weight:bold;vertical-align:top;">wsgi_version</td><td style="vertical-align:top;">:</td><td><div><table><tr><td><div>1</div></td></tr><tr><td><div>0</div></td></tr></table></div></td></tr></table></div></td></tr><tr><td style="font-weight:bold;vertical-align:top;">extension</td><td style="vertical-align:top;">:</td><td><div>html</div></td></tr><tr><td style="font-weight:bold;vertical-align:top;">folder</td><td style="vertical-align:top;">:</td><td><div>C:\\Users\\Sumani\\Downloads\\web2py_win\\web2py\\applications\\codetrain\\</div></td></tr><tr><td style="font-weight:bold;vertical-align:top;">function</td><td style="vertical-align:top;">:</td><td><div>register</div></td></tr><tr><td style="font-weight:bold;vertical-align:top;">global_settings</td><td style="vertical-align:top;">:</td><td><div><table><tr><td style="font-weight:bold;vertical-align:top;">app_folders</td><td style="vertical-align:top;">:</td><td><div>set([&#x27;C:\\\\Users\\\\Sumani\\\\Downloads\\\\web2py_win\\\\web2py\\\\applications\\\\welcome\\\\&#x27;, &#x27;C:\\\\Users\\\\Sumani\\\\Downloads\\\\web2py_win\\\\web2py\\\\applications\\\\codetrain\\\\&#x27;])</div></td></tr><tr><td style="font-weight:bold;vertical-align:top;">applications_parent</td><td style="vertical-align:top;">:</td><td><div>C:\\Users\\Sumani\\Downloads\\web2py_win\\web2py</div></td></tr><tr><td style="font-weight:bold;vertical-align:top;">cmd_args</td><td style="vertical-align:top;">:</td><td><div><table></table></div></td></tr><tr><td style="font-weight:bold;vertical-align:top;">cmd_options</td><td style="vertical-align:top;">:</td><td><div>&lt;Values at 0x3aeed78: {&#x27;verbose&#x27;: False, &#x27;ip&#x27;: &#x27;127.0.0.1&#x27;, &#x27;debuglevel&#x27;: 30, &#x27;with_scheduler&#x27;: False, &#x27;shutdown_timeout&#x27;: 5, &#x27;taskbar&#x27;: False, &#x27;with_coverage&#x27;: False, &#x27;pid_filename&#x27;: &#x27;httpserver.pid&#x27;, &#x27;maxthreads&#x27;: None, &#x27;softcron&#x27;: False, &#x27;server_name&#x27;: &#x27;DESKTOP-TT21R8I&#x27;, &#x27;bpython&#x27;: False, &#x27;nogui&#x27;: False, &#x27;port&#x27;: 8000, &#x27;print_errors&#x27;: False, &#x27;extcron&#x27;: False, &#x27;runcron&#x27;: False, &#x27;run_system_tests&#x27;: False, &#x27;test&#x27;: None, &#x27;folder&#x27;: &#x27;C:\\\\Users\\\\Sumani\\\\Downloads\\\\web2py_win\\\\web2py&#x27;, &#x27;config&#x27;: &#x27;&#x27;, &#x27;minthreads&#x27;: None, &#x27;shell&#x27;: None, &#x27;run&#x27;: &#x27;&#x27;, &#x27;log_filename&#x27;: &#x27;httpserver.log&#x27;, &#x27;profiler_dir&#x27;: None, &#x27;args&#x27;: [&#x27;&#x27;], &#x27;socket_timeout&#x27;: 5, &#x27;ssl_ca_certificate&#x27;: None, &#x27;scheduler&#x27;: None, &#x27;interfaces&#x27;: None, &#x27;ssl_private_key&#x27;: &#x27;&#x27;, &#x27;gae&#x27;: None, &#x27;password&#x27;: &#x27;******&#x27;, &#x27;request_queue_size&#x27;: 5, &#x27;ssl_certificate&#x27;: &#x27;&#x27;, &#x27;cronjob&#x27;: False, &#x27;numthreads&#x27;: None, &#x27;quiet&#x27;: False, &#x27;import_models&#x27;: False, &#x27;timeout&#x27;: 10, &#x27;plain&#x27;: False, &#x27;nobanner&#x27;: False}&gt;</div></td></tr><tr><td style="font-weight:bold;vertical-align:top;">db_sessions</td><td style="vertical-align:top;">:</td><td><div>set([])</div></td></tr><tr><td style="font-weight:bold;vertical-align:top;">debugging</td><td style="vertical-align:top;">:</td><td><div>False</div></td></tr><tr><td style="font-weight:bold;vertical-align:top;">gluon_parent</td><td style="vertical-align:top;">:</td><td><div>C:\\Users\\Sumani\\Downloads\\web2py_win\\web2py</div></td></tr><tr><td style="font-weight:bold;vertical-align:top;">is_jython</td><td style="vertical-align:top;">:</td><td><div>False</div></td></tr><tr><td style="font-weight:bold;vertical-align:top;">is_py2</td><td style="vertical-align:top;">:</td><td><div>True</div></td></tr><tr><td style="font-weight:bold;vertical-align:top;">is_pypy</td><td style="vertical-align:top;">:</td><td><div>False</div></td></tr><tr><td style="font-weight:bold;vertical-align:top;">is_source</td><td style="vertical-align:top;">:</td><td><div>False</div></td></tr><tr><td style="font-weight:bold;vertical-align:top;">local_hosts</td><td style="vertical-align:top;">:</td><td><div><table><tr><td><div>192.168.43.81</div></td></tr><tr><td><div>::ffff:127.0.0.1</div></td></tr><tr><td><div>::1</div></td></tr><tr><td><div>127.0.0.1</div></td></tr><tr><td><div>fe80::b142:adc2:c280:1f7a%9</div></td></tr><tr><td><div>DESKTOP-TT21R8I</div></td></tr></table></div></td></tr><tr><td style="font-weight:bold;vertical-align:top;">web2py_version</td><td style="vertical-align:top;">:</td><td><div>2.16.1-stable+timestamp.2017.11.14.05.54.25</div></td></tr></table></div></td></tr><tr><td style="font-weight:bold;vertical-align:top;">is_https</td><td style="vertical-align:top;">:</td><td><div>False</div></td></tr><tr><td style="font-weight:bold;vertical-align:top;">is_local</td><td style="vertical-align:top;">:</td><td><div>True</div></td></tr><tr><td style="font-weight:bold;vertical-align:top;">is_restful</td><td style="vertical-align:top;">:</td><td><div>False</div></td></tr><tr><td style="font-weight:bold;vertical-align:top;">is_scheduler</td><td style="vertical-align:top;">:</td><td><div>False</div></td></tr><tr><td style="font-weight:bold;vertical-align:top;">is_shell</td><td style="vertical-align:top;">:</td><td><div>False</div></td></tr><tr><td style="font-weight:bold;vertical-align:top;">now</td><td style="vertical-align:top;">:</td><td><div>datetime.datetime(2018, 6, 14, 9, 21, 55, 104000)</div></td></tr><tr><td style="font-weight:bold;vertical-align:top;">raw_args</td><td style="vertical-align:top;">:</td><td><div></div></td></tr><tr><td style="font-weight:bold;vertical-align:top;">raw_extension</td><td style="vertical-align:top;">:</td><td><div>None</div></td></tr><tr><td style="font-weight:bold;vertical-align:top;">url</td><td style="vertical-align:top;">:</td><td><div>/codetrain/default/register</div></td></tr><tr><td style="font-weight:bold;vertical-align:top;">utcnow</td><td style="vertical-align:top;">:</td><td><div>datetime.datetime(2018, 6, 14, 9, 21, 55, 104000)</div></td></tr><tr><td style="font-weight:bold;vertical-align:top;">wsgi</td><td style="vertical-align:top;">:</td><td><div>&lt;gluon.main.LazyWSGI object at 0x03C3BDD0&gt;</div></td></tr></table></div>'
tRp60
sS'frames'
p61
(lp62
(dp63
S'file'
p64
S'C:\\Users\\Sumani\\Downloads\\web2py_win\\web2py\\gluon\\restricted.py'
p65
sS'dump'
p66
(dp67
S'environment'
p68
S"{'A': <class 'gluon.html.A'>, 'ANY_OF': <class 'gluon.validators.ANY_OF'>, 'ASSIGNJS': <function ASSIGNJS>, 'AppConfig': <function AppConfig>, 'B': <class 'gluon.html.B'>, 'BEAUTIFY': <class 'gluon.html.BEAUTIFY'>, 'BODY': <class 'gluon.html.BODY'>, 'BR': <class 'gluon.html.BR'>, 'BUTTON': <class 'gluon.html.BUTTON'>, 'CAT': <class 'gluon.html.CAT'>, ...}"
p69
sS'ccode'
p70
S'<code object <module> at 03C1C800, file "C:\\User...s\\codetrain\\views\\default/register.html", line 1>'
p71
ssS'lnum'
p72
I219
sS'lines'
p73
(dp74
I214
S'    if environment is None:'
p75
sI215
S'        environment = {}'
p76
sI216
S"    environment['__file__'] = layer"
p77
sI217
S"    environment['__name__'] = '__restricted__'"
p78
sI218
S'    try:'
p79
sI219
S'        exec(ccode, environment)'
p80
sI220
S'    except HTTP:'
p81
sI221
S'        raise'
p82
sI222
S'    except RestrictedError:'
p83
sI223
S'        # do not encapsulate (obfuscate) the original RestrictedError'
p84
ssS'call'
p85
S'(ccode=<code object <module> at 03C1C800, file "C:\\User...s\\codetrain\\views\\default/register.html", line 1>, environment={\'A\': <class \'gluon.html.A\'>, \'ANY_OF\': <class \'gluon.validators.ANY_OF\'>, \'ASSIGNJS\': <function ASSIGNJS>, \'AppConfig\': <function AppConfig>, \'B\': <class \'gluon.html.B\'>, \'BEAUTIFY\': <class \'gluon.html.BEAUTIFY\'>, \'BODY\': <class \'gluon.html.BODY\'>, \'BR\': <class \'gluon.html.BR\'>, \'BUTTON\': <class \'gluon.html.BUTTON\'>, \'CAT\': <class \'gluon.html.CAT\'>, ...}, layer=r\'C:\\Users\\Sumani\\Downloads\\web2py_win\\web2py\\applications\\codetrain\\views\\default/register.html\', scode=\'response.write(\\\'<!DOCTYPE html>\\\\r\\\\n<html>\\\\r\\\\n<he..."></script>\\\\r\\\\n</body>\\\\r\\\\n</html>\\\', escape=False)\')'
p86
sS'func'
p87
S'restricted'
p88
sa(dp89
g64
S'C:\\Users\\Sumani\\Downloads\\web2py_win\\web2py\\applications\\codetrain\\views\\default\\register.html'
p90
sg66
(dp91
S'href'
p92
S'undefined'
p93
sS'link'
p94
g93
sS'builtintype'
p95
S"<type 'type'>"
p96
sS'rel'
p97
g93
ssg72
I6
sg73
(dp98
I1
S'response.write(\'<!DOCTYPE html>\\r\\n<html>\\r\\n<head>\\r\\n\\t<title></title>\\r\\n\\t<link rel="stylesheet" type="text/css" href="\', escape=False)'
p99
sI2
S"response.write(URL('static','css/bootstrap.css'))"
p100
sI3
S'response.write(\'">\\r\\n\\t<link rel="stylesheet" type="text/css" href="\', escape=False)'
p101
sI4
S"response.write(URL('static','css/style.css'))"
p102
sI5
S'response.write(\'">\\r\\n\\t<h1>CODE SCHOOL</h1>\\r\\n\\t<style>\\r\\n\\t\\t#example1 {\\r\\n    background: "\', escape=False)'
p103
sI6
S"response.write(url('static','images/bd.jpg'))"
p104
sI7
S'response.write(\'";\\r\\n    background-repeat: no-repeat;\\r\\n    background-size: auto;\\r\\n\\t</style>\\r\\n</head>\\r\\n<body class="background1">\\t\\r\\n\\t<div class="container">\\r\\n\\t\\t<div class="row">\\r\\n\\t\\t\\t<div class="col-md-6">\\r\\n\\t\\t\\t\\t<p>OUR MISSION\\r\\n\\t\\t\\t\\tAt CODE SCHOOL, we mentor individuals into professional programmers in an immersive classroom setting. Located in Madina, Accra, we offer a full-time, 12-week Web Development course designed to prepare students for a career in software development.</p> \\r\\n\\t\\t\\t\\t<br><br>\\r\\n\\t\\t\\t\\t<p>OUR INSTRUCTORS\\r\\n\\t\\t\\t\\tOur full-time instructors are industry experts and passionate educators who are committed to the success of every single student. Our courses are structured to provide in-person, one-on-one mentorship and guidance.</p> \\r\\n\\t\\t\\t\\t<br><br>\\r\\n\\t\\t\\t\\t<p>OUR CURRICULUM\\r\\n\\t\\t\\t\\tOur structured curriculum is designed with input from Upstate employers to give students a full-stack foundation and to prepare them for careers in technology - right here at home or wherever their career path may go.</p>\\r\\n\\t\\t\\t</div>\\r\\n\\t\\t\\t<div class="col-md-6 form-div>\\r\\n\\t\\t\\t\\t<form action="\', escape=False)'
p105
sI8
S"response.write(URL('store'))"
p106
sI9
S'response.write(\'" method="post">\\r\\n\\t\\t\\t\\t\\t<div class="form-group">\\r\\n\\t\\t\\t\\t\\t\\t<label for="firstname">First Name</label>\\r\\n\\t\\t\\t\\t\\t\\t<input type="text" class="form-control" name="firstname">\\r\\n\\t\\t\\t\\t\\t</div>\\r\\n\\t\\t\\t\\t\\t<div class="form-group">\\r\\n\\t\\t\\t\\t\\t\\t<label for="lastname">Last Name</label>\\r\\n\\t\\t\\t\\t\\t\\t<input type="text" class="form-control" name="lastname">\\r\\n\\t\\t\\t\\t\\t</div>\\r\\n\\t\\t\\t\\t\\t<div class="form-group">\\r\\n\\t\\t\\t\\t\\t\\t<label for="email">Email</label>\\r\\n\\t\\t\\t\\t\\t\\t<input type="email" class="form-control" name="email">\\r\\n\\t\\t\\t\\t\\t</div>\\r\\n\\t\\t\\t\\t\\t<div class="form-group">\\r\\n\\t\\t\\t\\t\\t\\t<label for="password">Password</label>\\r\\n\\t\\t\\t\\t\\t\\t<input type="password" class="form-control" name="password">\\r\\n\\t\\t\\t\\t\\t</div>\\r\\n\\t\\t\\t\\t\\t<div>\\r\\n\\t\\t\\t\\t\\t\\t<input type="submit" class="btn btn-primary" value="Save User">\\r\\n\\t\\t\\t\\t\\t\\t<button type="button" class="btn btn-default"><a href="\', escape=False)'
p107
sI10
S"response.write(URL('login.html'))"
p108
sI11
S'response.write(\'">Login</button>\\r\\n\\t\\t\\t\\t\\t</div>\\r\\n\\t\\t\\t\\t</form>\\r\\n\\t\\t\\t</div>\\t\\r\\n\\t\\t</div>\\r\\n\\t</div>\\r\\n\\t<script src="\', escape=False)'
p109
sI12
S"response.write(URL('static','js/jquery.js'))"
p110
sI13
S'response.write(\'"></script>\\t\\r\\n\\t<script src="\', escape=False)'
p111
sI14
S"response.write(URL('static','js/bootstrap.js'))"
p112
sI15
S'response.write(\'"></script>\\r\\n</body>\\r\\n</html>\', escape=False)'
p113
ssg85
S'()'
p114
sg87
S'<module>'
p115
sasS'pyver'
p116
S'Python 2.7.9: C:\\Users\\Sumani\\Downloads\\web2py_win\\web2py\\web2py.exe (prefix: )'
p117
sS'session'
p118
g59
(S's\x1a\x00\x00\x00<div><table></table></div>'
tRp119
sS'etype'
p120
S"<type 'exceptions.NameError'>"
p121
sS'date'
p122
S'Thu Jun 14 09:21:55 2018'
p123
sS'response'
p124
g59
(S's\xa38\x00\x00<div><table><tr><td style="font-weight:bold;vertical-align:top;">body</td><td style="vertical-align:top;">:</td><td><div>&lt;cStringIO.StringO object at 0x03C3B620&gt;</div></td></tr><tr><td style="font-weight:bold;vertical-align:top;">cookies</td><td style="vertical-align:top;">:</td><td><div><table><tr><td style="font-weight:bold;vertical-align:top;">session_id_codetrain</td><td style="vertical-align:top;">:</td><td><div>127.0.0.1-1aaf2e08-37f7-46c7-be67-8280cd19cc00<table><tr><td style="font-weight:bold;vertical-align:top;">comment</td><td style="vertical-align:top;">:</td><td><div></div></td></tr><tr><td style="font-weight:bold;vertical-align:top;">domain</td><td style="vertical-align:top;">:</td><td><div></div></td></tr><tr><td style="font-weight:bold;vertical-align:top;">expires</td><td style="vertical-align:top;">:</td><td><div></div></td></tr><tr><td style="font-weight:bold;vertical-align:top;">httponly</td><td style="vertical-align:top;">:</td><td><div></div></td></tr><tr><td style="font-weight:bold;vertical-align:top;">max-age</td><td style="vertical-align:top;">:</td><td><div></div></td></tr><tr><td style="font-weight:bold;vertical-align:top;">path</td><td style="vertical-align:top;">:</td><td><div>/</div></td></tr><tr><td style="font-weight:bold;vertical-align:top;">secure</td><td style="vertical-align:top;">:</td><td><div></div></td></tr><tr><td style="font-weight:bold;vertical-align:top;">version</td><td style="vertical-align:top;">:</td><td><div></div></td></tr></table></div></td></tr></table></div></td></tr><tr><td style="font-weight:bold;vertical-align:top;">delimiters</td><td style="vertical-align:top;">:</td><td><div><table><tr><td><div>{{</div></td></tr><tr><td><div>}}</div></td></tr></table></div></td></tr><tr><td style="font-weight:bold;vertical-align:top;">files</td><td style="vertical-align:top;">:</td><td><div><table></table></div></td></tr><tr><td style="font-weight:bold;vertical-align:top;">flash</td><td style="vertical-align:top;">:</td><td><div></div></td></tr><tr><td style="font-weight:bold;vertical-align:top;">form_label_separator</td><td style="vertical-align:top;">:</td><td><div>: </div></td></tr><tr><td style="font-weight:bold;vertical-align:top;">formstyle</td><td style="vertical-align:top;">:</td><td><div>table3cols</div></td></tr><tr><td style="font-weight:bold;vertical-align:top;">generic_patterns</td><td style="vertical-align:top;">:</td><td><div><table><tr><td><div>*</div></td></tr></table></div></td></tr><tr><td style="font-weight:bold;vertical-align:top;">headers</td><td style="vertical-align:top;">:</td><td><div><table><tr><td style="font-weight:bold;vertical-align:top;">X-Powered-By</td><td style="vertical-align:top;">:</td><td><div>web2py</div></td></tr></table></div></td></tr><tr><td style="font-weight:bold;vertical-align:top;">menu</td><td style="vertical-align:top;">:</td><td><div><table><tr><td><div><table><tr><td><div>Home</div></td></tr><tr><td><div>False</div></td></tr><tr><td><div>/codetrain/default/index</div></td></tr><tr><td><div><table></table></div></td></tr></table></div></td></tr><tr><td><div><table><tr><td><div>My Sites</div></td></tr><tr><td><div>False</div></td></tr><tr><td><div>/admin/default/site</div></td></tr></table></div></td></tr><tr><td><div><table><tr><td><div>This App</div></td></tr><tr><td><div>False</div></td></tr><tr><td><div>#</div></td></tr><tr><td><div><table><tr><td><div><table><tr><td><div>Design</div></td></tr><tr><td><div>False</div></td></tr><tr><td><div>/admin/default/design/codetrain</div></td></tr></table></div></td></tr><tr><td><div><table><tr><td><div>Controller</div></td></tr><tr><td><div>False</div></td></tr><tr><td><div>/admin/default/edit/codetrain/controllers/default.py</div></td></tr></table></div></td></tr><tr><td><div><table><tr><td><div>View</div></td></tr><tr><td><div>False</div></td></tr><tr><td><div>/admin/default/edit/codetrain/views/default/register.html</div></td></tr></table></div></td></tr><tr><td><div><table><tr><td><div>DB Model</div></td></tr><tr><td><div>False</div></td></tr><tr><td><div>/admin/default/edit/codetrain/models/db.py</div></td></tr></table></div></td></tr><tr><td><div><table><tr><td><div>Menu Model</div></td></tr><tr><td><div>False</div></td></tr><tr><td><div>/admin/default/edit/codetrain/models/menu.py</div></td></tr></table></div></td></tr><tr><td><div><table><tr><td><div>Config.ini</div></td></tr><tr><td><div>False</div></td></tr><tr><td><div>/admin/default/edit/codetrain/private/appconfig.ini</div></td></tr></table></div></td></tr><tr><td><div><table><tr><td><div>Layout</div></td></tr><tr><td><div>False</div></td></tr><tr><td><div>/admin/default/edit/codetrain/views/layout.html</div></td></tr></table></div></td></tr><tr><td><div><table><tr><td><div>Stylesheet</div></td></tr><tr><td><div>False</div></td></tr><tr><td><div>/admin/default/edit/codetrain/static/css/web2py-bootstrap3.css</div></td></tr></table></div></td></tr><tr><td><div><table><tr><td><div>Database</div></td></tr><tr><td><div>False</div></td></tr><tr><td><div>/codetrain/appadmin/index</div></td></tr></table></div></td></tr><tr><td><div><table><tr><td><div>Errors</div></td></tr><tr><td><div>False</div></td></tr><tr><td><div>/admin/default/errors/codetrain</div></td></tr></table></div></td></tr><tr><td><div><table><tr><td><div>About</div></td></tr><tr><td><div>False</div></td></tr><tr><td><div>/admin/default/about/codetrain</div></td></tr></table></div></td></tr></table></div></td></tr></table></div></td></tr><tr><td><div><table><tr><td><div>web2py.com</div></td></tr><tr><td><div>False</div></td></tr><tr><td><div>#</div></td></tr><tr><td><div><table><tr><td><div><table><tr><td><div>Download</div></td></tr><tr><td><div>False</div></td></tr><tr><td><div>http://www.web2py.com/examples/default/download</div></td></tr></table></div></td></tr><tr><td><div><table><tr><td><div>Support</div></td></tr><tr><td><div>False</div></td></tr><tr><td><div>http://www.web2py.com/examples/default/support</div></td></tr></table></div></td></tr><tr><td><div><table><tr><td><div>Demo</div></td></tr><tr><td><div>False</div></td></tr><tr><td><div>http://web2py.com/demo_admin</div></td></tr></table></div></td></tr><tr><td><div><table><tr><td><div>Quick Examples</div></td></tr><tr><td><div>False</div></td></tr><tr><td><div>http://web2py.com/examples/default/examples</div></td></tr></table></div></td></tr><tr><td><div><table><tr><td><div>FAQ</div></td></tr><tr><td><div>False</div></td></tr><tr><td><div>http://web2py.com/AlterEgo</div></td></tr></table></div></td></tr><tr><td><div><table><tr><td><div>Videos</div></td></tr><tr><td><div>False</div></td></tr><tr><td><div>http://www.web2py.com/examples/default/videos/</div></td></tr></table></div></td></tr><tr><td><div><table><tr><td><div>Free Applications</div></td></tr><tr><td><div>False</div></td></tr><tr><td><div>http://web2py.com/appliances</div></td></tr></table></div></td></tr><tr><td><div><table><tr><td><div>Plugins</div></td></tr><tr><td><div>False</div></td></tr><tr><td><div>http://web2py.com/plugins</div></td></tr></table></div></td></tr><tr><td><div><table><tr><td><div>Recipes</div></td></tr><tr><td><div>False</div></td></tr><tr><td><div>http://web2pyslices.com/</div></td></tr></table></div></td></tr></table></div></td></tr></table></div></td></tr><tr><td><div><table><tr><td><div>Documentation</div></td></tr><tr><td><div>False</div></td></tr><tr><td><div>#</div></td></tr><tr><td><div><table><tr><td><div><table><tr><td><div>Online book</div></td></tr><tr><td><div>False</div></td></tr><tr><td><div>http://www.web2py.com/book</div></td></tr></table></div></td></tr><tr><td><div><table><tr><td><div>Preface</div></td></tr><tr><td><div>False</div></td></tr><tr><td><div>http://www.web2py.com/book/default/chapter/00</div></td></tr></table></div></td></tr><tr><td><div><table><tr><td><div>Introduction</div></td></tr><tr><td><div>False</div></td></tr><tr><td><div>http://www.web2py.com/book/default/chapter/01</div></td></tr></table></div></td></tr><tr><td><div><table><tr><td><div>Python</div></td></tr><tr><td><div>False</div></td></tr><tr><td><div>http://www.web2py.com/book/default/chapter/02</div></td></tr></table></div></td></tr><tr><td><div><table><tr><td><div>Overview</div></td></tr><tr><td><div>False</div></td></tr><tr><td><div>http://www.web2py.com/book/default/chapter/03</div></td></tr></table></div></td></tr><tr><td><div><table><tr><td><div>The Core</div></td></tr><tr><td><div>False</div></td></tr><tr><td><div>http://www.web2py.com/book/default/chapter/04</div></td></tr></table></div></td></tr><tr><td><div><table><tr><td><div>The Views</div></td></tr><tr><td><div>False</div></td></tr><tr><td><div>http://www.web2py.com/book/default/chapter/05</div></td></tr></table></div></td></tr><tr><td><div><table><tr><td><div>Database</div></td></tr><tr><td><div>False</div></td></tr><tr><td><div>http://www.web2py.com/book/default/chapter/06</div></td></tr></table></div></td></tr><tr><td><div><table><tr><td><div>Forms and Validators</div></td></tr><tr><td><div>False</div></td></tr><tr><td><div>http://www.web2py.com/book/default/chapter/07</div></td></tr></table></div></td></tr><tr><td><div><table><tr><td><div>Email and SMS</div></td></tr><tr><td><div>False</div></td></tr><tr><td><div>http://www.web2py.com/book/default/chapter/08</div></td></tr></table></div></td></tr><tr><td><div><table><tr><td><div>Access Control</div></td></tr><tr><td><div>False</div></td></tr><tr><td><div>http://www.web2py.com/book/default/chapter/09</div></td></tr></table></div></td></tr><tr><td><div><table><tr><td><div>Services</div></td></tr><tr><td><div>False</div></td></tr><tr><td><div>http://www.web2py.com/book/default/chapter/10</div></td></tr></table></div></td></tr><tr><td><div><table><tr><td><div>Ajax Recipes</div></td></tr><tr><td><div>False</div></td></tr><tr><td><div>http://www.web2py.com/book/default/chapter/11</div></td></tr></table></div></td></tr><tr><td><div><table><tr><td><div>Components and Plugins</div></td></tr><tr><td><div>False</div></td></tr><tr><td><div>http://www.web2py.com/book/default/chapter/12</div></td></tr></table></div></td></tr><tr><td><div><table><tr><td><div>Deployment Recipes</div></td></tr><tr><td><div>False</div></td></tr><tr><td><div>http://www.web2py.com/book/default/chapter/13</div></td></tr></table></div></td></tr><tr><td><div><table><tr><td><div>Other Recipes</div></td></tr><tr><td><div>False</div></td></tr><tr><td><div>http://www.web2py.com/book/default/chapter/14</div></td></tr></table></div></td></tr><tr><td><div><table><tr><td><div>Helping web2py</div></td></tr><tr><td><div>False</div></td></tr><tr><td><div>http://www.web2py.com/book/default/chapter/15</div></td></tr></table></div></td></tr><tr><td><div><table><tr><td><div>Buy web2py\'s book</div></td></tr><tr><td><div>False</div></td></tr><tr><td><div>http://stores.lulu.com/web2py</div></td></tr></table></div></td></tr></table></div></td></tr></table></div></td></tr><tr><td><div><table><tr><td><div>Community</div></td></tr><tr><td><div>False</div></td></tr><tr><td><div>None</div></td></tr><tr><td><div><table><tr><td><div><table><tr><td><div>Groups</div></td></tr><tr><td><div>False</div></td></tr><tr><td><div>http://www.web2py.com/examples/default/usergroups</div></td></tr></table></div></td></tr><tr><td><div><table><tr><td><div>Twitter</div></td></tr><tr><td><div>False</div></td></tr><tr><td><div>http://twitter.com/web2py</div></td></tr></table></div></td></tr><tr><td><div><table><tr><td><div>Live Chat</div></td></tr><tr><td><div>False</div></td></tr><tr><td><div>http://webchat.freenode.net/?channels=web2py</div></td></tr></table></div></td></tr></table></div></td></tr></table></div></td></tr></table></div></td></tr><tr><td style="font-weight:bold;vertical-align:top;">meta</td><td style="vertical-align:top;">:</td><td><div><table></table></div></td></tr><tr><td style="font-weight:bold;vertical-align:top;">models_to_run</td><td style="vertical-align:top;">:</td><td><div><table><tr><td><div>^\\w+\\.py$</div></td></tr><tr><td><div>^default/\\w+\\.py$</div></td></tr><tr><td><div>^default/register/\\w+\\.py$</div></td></tr></table></div></td></tr><tr><td style="font-weight:bold;vertical-align:top;">postprocessing</td><td style="vertical-align:top;">:</td><td><div><table></table></div></td></tr><tr><td style="font-weight:bold;vertical-align:top;">session_client</td><td style="vertical-align:top;">:</td><td><div>127.0.0.1</div></td></tr><tr><td style="font-weight:bold;vertical-align:top;">session_cookie_compression_level</td><td style="vertical-align:top;">:</td><td><div>None</div></td></tr><tr><td style="font-weight:bold;vertical-align:top;">session_cookie_expires</td><td style="vertical-align:top;">:</td><td><div>None</div></td></tr><tr><td style="font-weight:bold;vertical-align:top;">session_data_name</td><td style="vertical-align:top;">:</td><td><div>session_data_codetrain</div></td></tr><tr><td style="font-weight:bold;vertical-align:top;">session_file</td><td style="vertical-align:top;">:</td><td><div>None</div></td></tr><tr><td style="font-weight:bold;vertical-align:top;">session_filename</td><td style="vertical-align:top;">:</td><td><div>C:\\Users\\Sumani\\Downloads\\web2py_win\\web2py\\applications\\codetrain\\sessions\\127.0.0.1-1aaf2e08-37f7-46c7-be67-8280cd19cc00</div></td></tr><tr><td style="font-weight:bold;vertical-align:top;">session_hash</td><td style="vertical-align:top;">:</td><td><div>c0762cbf4baf7f9af97c051e7fcb8083</div></td></tr><tr><td style="font-weight:bold;vertical-align:top;">session_id</td><td style="vertical-align:top;">:</td><td><div>127.0.0.1-1aaf2e08-37f7-46c7-be67-8280cd19cc00</div></td></tr><tr><td style="font-weight:bold;vertical-align:top;">session_id_name</td><td style="vertical-align:top;">:</td><td><div>session_id_codetrain</div></td></tr><tr><td style="font-weight:bold;vertical-align:top;">session_masterapp</td><td style="vertical-align:top;">:</td><td><div>codetrain</div></td></tr><tr><td style="font-weight:bold;vertical-align:top;">session_new</td><td style="vertical-align:top;">:</td><td><div>True</div></td></tr><tr><td style="font-weight:bold;vertical-align:top;">session_storage_type</td><td style="vertical-align:top;">:</td><td><div>file</div></td></tr><tr><td style="font-weight:bold;vertical-align:top;">status</td><td style="vertical-align:top;">:</td><td><div>200</div></td></tr><tr><td style="font-weight:bold;vertical-align:top;">view</td><td style="vertical-align:top;">:</td><td><div>default/register.html</div></td></tr></table></div>'
tRp125
sS'locals'
p126
(dp127
S'PY2'
p128
S'True'
p129
sS'OBJECT'
p130
S"<class 'gluon.html.OBJECT'>"
p131
sS'SQLDB'
p132
S"<class 'pydal.base.DAL'>"
p133
sg118
S'<Storage {}>'
p134
sS'LINK'
p135
S"<class 'gluon.html.LINK'>"
p136
sS'BR'
p137
S"<class 'gluon.html.BR'>"
p138
sS'local_import'
p139
S'<function <lambda>>'
p140
sS'OPTGROUP'
p141
S"<class 'gluon.html.OPTGROUP'>"
p142
sS'__package__'
p143
S'None'
p144
sS'PRE'
p145
S"<class 'gluon.html.PRE'>"
p146
sS'IS_INT_IN_RANGE'
p147
S"<class 'gluon.validators.IS_INT_IN_RANGE'>"
p148
sS'to_bytes'
p149
S'<function to_bytes>'
p150
sS'IS_LOWER'
p151
S"<class 'gluon.validators.IS_LOWER'>"
p152
sS'IS_STRONG'
p153
S"<class 'gluon.validators.IS_STRONG'>"
p154
sS'cache'
p155
S'<gluon.cache.Cache object>'
p156
sS'IS_IN_DB'
p157
S"<class 'gluon.validators.IS_IN_DB'>"
p158
sS'TAG'
p159
S'<gluon.html.__TAG__ object>'
p160
sS'SQLField'
p161
S"<class 'pydal.objects.Field'>"
p162
sS'BODY'
p163
S"<class 'gluon.html.BODY'>"
p164
sS'IS_DATE_IN_RANGE'
p165
S"<class 'gluon.validators.IS_DATE_IN_RANGE'>"
p166
sS'IFRAME'
p167
S"<class 'gluon.html.IFRAME'>"
p168
sS'URL'
p169
S'<function URL>'
p170
sS'__file__'
p171
S"r'C:\\Users\\Sumani\\Downloads\\web2py_win\\web2py\\applications\\codetrain\\views\\default/register.html'"
p172
sS'db'
p173
S'<DAL uri="sqlite://storage.sqlite">'
p174
sS'P'
S"<class 'gluon.html.P'>"
p175
sS'TFOOT'
p176
S"<class 'gluon.html.TFOOT'>"
p177
sS'iteritems'
p178
S'<function <lambda>>'
p179
sS'XHTML'
p180
S"<class 'gluon.html.XHTML'>"
p181
sS'ON'
p182
g129
sS'OL'
p183
S"<class 'gluon.html.OL'>"
p184
sS'TEXTAREA'
p185
S"<class 'gluon.html.TEXTAREA'>"
p186
sS'MENU'
p187
S"<class 'gluon.html.MENU'>"
p188
sS'IS_IMAGE'
p189
S"<class 'gluon.validators.IS_IMAGE'>"
p190
sS'EM'
p191
S"<class 'gluon.html.EM'>"
p192
sS'CODE'
p193
S"<class 'gluon.html.CODE'>"
p194
sS'HTTP'
p195
S"<class 'gluon.http.HTTP'>"
p196
sS'HR'
p197
S"<class 'gluon.html.HR'>"
p198
sS'IS_DATETIME'
p199
S"<class 'gluon.validators.IS_DATETIME'>"
p200
sS'reduce'
p201
S'<built-in function reduce>'
p202
sS'STYLE'
p203
S"<class 'gluon.html.STYLE'>"
p204
sS'LABEL'
p205
S"<class 'gluon.html.LABEL'>"
p206
sS'CLEANUP'
p207
S"<class 'gluon.validators.CLEANUP'>"
p208
sS'SELECT'
p209
S"<class 'gluon.html.SELECT'>"
p210
sS'CENTER'
p211
S"<class 'gluon.html.CENTER'>"
p212
sS'__builtins__'
p213
S"{'ArithmeticError': <type 'exceptions.ArithmeticError'>, 'AssertionError': <type 'exceptions.AssertionError'>, 'AttributeError': <type 'exceptions.AttributeError'>, 'BaseException': <type 'exceptions.BaseException'>, 'BufferError': <type 'exceptions.BufferError'>, 'BytesWarning': <type 'exceptions.BytesWarning'>, 'DeprecationWarning': <type 'exceptions.DeprecationWarning'>, 'EOFError': <type 'exceptions.EOFError'>, 'Ellipsis': Ellipsis, 'EnvironmentError': <type 'exceptions.EnvironmentError'>, ...}"
p214
sS'HTML'
p215
S"<class 'gluon.html.HTML'>"
p216
sS'SQLFORM'
p217
S"<class 'gluon.sqlhtml.SQLFORM'>"
p218
sS'LOAD'
p219
S'<function LOAD>'
p220
sS'redirect'
p221
S'<function redirect>'
p222
sS'FIELDSET'
p223
S"<class 'gluon.html.FIELDSET'>"
p224
sS'IS_EQUAL_TO'
p225
S"<class 'gluon.validators.IS_EQUAL_TO'>"
p226
sS'embed64'
p227
S'<function embed64>'
p228
sS'IS_LIST_OF'
p229
S"<class 'gluon.validators.IS_LIST_OF'>"
p230
sS'INPUT'
p231
S"<class 'gluon.html.INPUT'>"
p232
sS'EMBED'
p233
S"<class 'gluon.html.EMBED'>"
p234
sS'configuration'
p235
S"{'host': {'names': 'localhost:*, 127.0.0.1:*, *:...': 'sqlite://storage.sqlite', 'pool_size': '10'}}"
p236
sS'H2'
p237
S"<class 'gluon.html.H2'>"
p238
sS'H3'
p239
S"<class 'gluon.html.H3'>"
p240
sS'AppConfig'
p241
S'<function AppConfig>'
p242
sS'H1'
p243
S"<class 'gluon.html.H1'>"
p244
sS'H6'
p245
S"<class 'gluon.html.H6'>"
p246
sS'H4'
p247
S"<class 'gluon.html.H4'>"
p248
sS'H5'
p249
S"<class 'gluon.html.H5'>"
p250
sS'UL'
p251
S"<class 'gluon.html.UL'>"
p252
sS'IS_UPPER'
p253
S"<class 'gluon.validators.IS_UPPER'>"
p254
sS'xmlescape'
p255
S'<function xmlescape>'
p256
sS'IS_TIME'
p257
S"<class 'gluon.validators.IS_TIME'>"
p258
sS'OPTION'
p259
S"<class 'gluon.html.OPTION'>"
p260
sS'TITLE'
p261
S"<class 'gluon.html.TITLE'>"
p262
sS'CRYPT'
p263
S"<class 'gluon.validators.CRYPT'>"
p264
sS'IS_EMPTY_OR'
p265
S"<class 'gluon.validators.IS_EMPTY_OR'>"
p266
sS'MARKMIN'
p267
S"<class 'gluon.html.MARKMIN'>"
p268
sS'__name__'
p269
S"'__restricted__'"
p270
sS'STRONG'
p271
S"<class 'gluon.html.STRONG'>"
p272
sS'COL'
p273
S"<class 'gluon.html.COL'>"
p274
sS'SCRIPT'
p275
S"<class 'gluon.html.SCRIPT'>"
p276
sS'TABLE'
p277
S"<class 'gluon.html.TABLE'>"
p278
sS'IS_IPV4'
p279
S"<class 'gluon.validators.IS_IPV4'>"
p280
sS'IS_LENGTH'
p281
S"<class 'gluon.validators.IS_LENGTH'>"
p282
sS'IS_IPV6'
p283
S"<class 'gluon.validators.IS_IPV6'>"
p284
sS'XML'
p285
S"<class 'gluon.html.XML'>"
p286
sS'B'
S"<class 'gluon.html.B'>"
p287
sS'IMG'
p288
S"<class 'gluon.html.IMG'>"
p289
sS'SQLTABLE'
p290
S"<class 'gluon.sqlhtml.SQLTABLE'>"
p291
sS'IS_MATCH'
p292
S"<class 'gluon.validators.IS_MATCH'>"
p293
sS'IS_ALPHANUMERIC'
p294
S"<class 'gluon.validators.IS_ALPHANUMERIC'>"
p295
sS'_app'
p296
S"'codetrain'"
p297
sS'SPAN'
p298
S"<class 'gluon.html.SPAN'>"
p299
sS'IS_JSON'
p300
S"<class 'gluon.validators.IS_JSON'>"
p301
sS'IS_IPADDRESS'
p302
S"<class 'gluon.validators.IS_IPADDRESS'>"
p303
sS'IS_SLUG'
p304
S"<class 'gluon.validators.IS_SLUG'>"
p305
sS'BEAUTIFY'
p306
S"<class 'gluon.html.BEAUTIFY'>"
p307
sS'META'
p308
S"<class 'gluon.html.META'>"
p309
sS'BUTTON'
p310
S"<class 'gluon.html.BUTTON'>"
p311
sS'IS_DATE'
p312
S"<class 'gluon.validators.IS_DATE'>"
p313
sS'IS_EMAIL'
p314
S"<class 'gluon.validators.IS_EMAIL'>"
p315
sS'IS_NOT_EMPTY'
p316
S"<class 'gluon.validators.IS_NOT_EMPTY'>"
p317
sS'xrange'
p318
S"<type 'xrange'>"
p319
sS'TBODY'
p320
S"<class 'gluon.html.TBODY'>"
p321
sS'CAT'
p322
S"<class 'gluon.html.CAT'>"
p323
sS'Field'
p324
S"<class 'pydal.objects.Field'>"
p325
sS'IS_LIST_OF_EMAILS'
p326
S"<class 'gluon.validators.IS_LIST_OF_EMAILS'>"
p327
sg58
S"<Storage {'_vars': None, 'function': 'register',...\\web2py_win\\\\web2py\\\\applications\\\\codetrain\\\\'}>"
p328
sS'DIV'
p329
S"<class 'gluon.html.DIV'>"
p330
sS'LEGEND'
p331
S"<class 'gluon.html.LEGEND'>"
p332
sS'to_native'
p333
S'<function to_native>'
p334
sS'COLGROUP'
p335
S"<class 'gluon.html.COLGROUP'>"
p336
sS'DAL'
p337
S"<class 'pydal.base.DAL'>"
p338
sS'ASSIGNJS'
p339
S'<function ASSIGNJS>'
p340
sS'TR'
p341
S"<class 'gluon.html.TR'>"
p342
sS'LI'
p343
S"<class 'gluon.html.LI'>"
p344
sS'TH'
p345
S"<class 'gluon.html.TH'>"
p346
sS'TD'
p347
S"<class 'gluon.html.TD'>"
p348
sS'IS_URL'
p349
S"<class 'gluon.validators.IS_URL'>"
p350
sS'A'
S"<class 'gluon.html.A'>"
p351
sS'HEAD'
p352
S"<class 'gluon.html.HEAD'>"
p353
sS'IS_DATETIME_IN_RANGE'
p354
S"<class 'gluon.validators.IS_DATETIME_IN_RANGE'>"
p355
sS'FORM'
p356
S"<class 'gluon.html.FORM'>"
p357
sS'I'
S"<class 'gluon.html.I'>"
p358
sS'IS_NOT_IN_DB'
p359
S"<class 'gluon.validators.IS_NOT_IN_DB'>"
p360
sg124
S"<Storage {'body': <cStringIO.StringO object at 0...at 0x03C15BF0>, 'view': 'default/register.html'}>"
p361
sS'THEAD'
p362
S"<class 'gluon.html.THEAD'>"
p363
sS'ANY_OF'
p364
S"<class 'gluon.validators.ANY_OF'>"
p365
sS'IS_NULL_OR'
p366
S"<class 'gluon.validators.IS_EMPTY_OR'>"
p367
sS'IS_FLOAT_IN_RANGE'
p368
S"<class 'gluon.validators.IS_FLOAT_IN_RANGE'>"
p369
sS'IS_EXPR'
p370
S"<class 'gluon.validators.IS_EXPR'>"
p371
sS'T'
S'<gluon.languages.translator object>'
p372
sS'IS_IN_SET'
p373
S"<class 'gluon.validators.IS_IN_SET'>"
p374
sS'IS_UPLOAD_FILENAME'
p375
S"<class 'gluon.validators.IS_UPLOAD_FILENAME'>"
p376
sS'TT'
p377
S"<class 'gluon.html.TT'>"
p378
sS'IS_DECIMAL_IN_RANGE'
p379
S"<class 'gluon.validators.IS_DECIMAL_IN_RANGE'>"
p380
sssS'traceback'
p381
S'Traceback (most recent call last):\n  File "C:\\Users\\Sumani\\Downloads\\web2py_win\\web2py\\gluon\\restricted.py", line 219, in restricted\n    exec(ccode, environment)\n  File "C:\\Users\\Sumani\\Downloads\\web2py_win\\web2py\\applications\\codetrain\\views\\default/register.html", line 6, in <module>\n    <link rel="stylesheet" type="text/css" href="{{=URL(\'static\',\'css/style.css\')}}">\nNameError: name \'url\' is not defined\n'
p382
s.